target datalayout = "e-m:e-p270:32:32-p271:32:32-p272:64:64-i64:64-i128:128-f80:128-n8:16:32:64-S128"
target triple = "x86_64-pc-linux-gnu"

%"class.llvm::StringRef" = type { ptr, i64 }
%"struct.clang::comments::CommandInfo" = type { ptr, ptr, i64 }
%"class.clang::comments::CommandTraits" = type { i32, ptr, %"class.llvm::SmallVector" }
%"class.llvm::SmallVector" = type { %"class.llvm::SmallVectorImpl", %"struct.llvm::SmallVectorStorage" }
%"class.llvm::SmallVectorImpl" = type { %"class.llvm::SmallVectorTemplateBase" }
%"class.llvm::SmallVectorTemplateBase" = type { %"class.llvm::SmallVectorTemplateCommon" }
%"class.llvm::SmallVectorTemplateCommon" = type { %"class.llvm::SmallVectorBase" }
%"class.llvm::SmallVectorBase" = type { ptr, i32, i32 }
%"struct.llvm::SmallVectorStorage" = type { [32 x i8] }
%"class.llvm::SmallVector.14" = type { %"class.llvm::SmallVectorImpl.15", %"struct.llvm::SmallVectorStorage.18" }
%"class.llvm::SmallVectorImpl.15" = type { %"class.llvm::SmallVectorTemplateBase.16" }
%"class.llvm::SmallVectorTemplateBase.16" = type { %"class.llvm::SmallVectorTemplateCommon.17" }
%"class.llvm::SmallVectorTemplateCommon.17" = type { %"class.llvm::SmallVectorBase" }
%"struct.llvm::SmallVectorStorage.18" = type { [16 x i8] }
%class.anon = type { ptr, ptr, ptr }

; Function Attrs: mustprogress nounwind uwtable
define linkonce_odr hidden noundef ptr @_ZNK4llvm25SmallVectorTemplateCommonIPKN5clang8comments11CommandInfoEvE10getFirstElEv(ptr noundef nonnull align 8 dereferenceable(16) %0) #0 comdat align 2 {
  %2 = alloca ptr, align 8
  store ptr %0, ptr %2, align 8
  %3 = load ptr, ptr %2, align 8
  %4 = getelementptr inbounds i8, ptr %3, i64 16
  ret ptr %4
}

; Function Attrs: mustprogress nounwind uwtable
define linkonce_odr hidden void @_ZN4llvm25SmallVectorTemplateCommonIPKN5clang8comments11CommandInfoEvEC2Em(ptr noundef nonnull align 8 dereferenceable(16) %0, i64 noundef %1) unnamed_addr #0 comdat align 2 {
  %3 = alloca ptr, align 8
  %4 = alloca i64, align 8
  store ptr %0, ptr %3, align 8
  store i64 %1, ptr %4, align 8
  %5 = load ptr, ptr %3, align 8
  %6 = call noundef ptr @_ZNK4llvm25SmallVectorTemplateCommonIPKN5clang8comments11CommandInfoEvE10getFirstElEv(ptr noundef nonnull align 8 dereferenceable(16) %5)
  %7 = load i64, ptr %4, align 8
  call void @_ZN4llvm15SmallVectorBaseIjEC2EPvm(ptr noundef nonnull align 8 dereferenceable(16) %5, ptr noundef %6, i64 noundef %7)
  ret void
}

; Function Attrs: mustprogress nounwind uwtable
define linkonce_odr hidden noundef zeroext i1 @_ZNK4llvm25SmallVectorTemplateCommonIPKN5clang8comments11CommandInfoEvE7isSmallEv(ptr noundef nonnull align 8 dereferenceable(16) %0) #0 comdat align 2 {
  %2 = alloca ptr, align 8
  store ptr %0, ptr %2, align 8
  %3 = load ptr, ptr %2, align 8
  %4 = getelementptr inbounds nuw %"class.llvm::SmallVectorBase", ptr %3, i32 0, i32 0
  %5 = load ptr, ptr %4, align 8
  %6 = call noundef ptr @_ZNK4llvm25SmallVectorTemplateCommonIPKN5clang8comments11CommandInfoEvE10getFirstElEv(ptr noundef nonnull align 8 dereferenceable(16) %3)
  %7 = icmp eq ptr %5, %6
  ret i1 %7
}

; Function Attrs: mustprogress nounwind uwtable
define linkonce_odr hidden void @_ZN4llvm23SmallVectorTemplateBaseIPKN5clang8comments11CommandInfoELb1EEC2Em(ptr noundef nonnull align 8 dereferenceable(16) %0, i64 noundef %1) unnamed_addr #0 comdat align 2 {
  %3 = alloca ptr, align 8
  %4 = alloca i64, align 8
  store ptr %0, ptr %3, align 8
  store i64 %1, ptr %4, align 8
  %5 = load ptr, ptr %3, align 8
  %6 = load i64, ptr %4, align 8
  call void @_ZN4llvm25SmallVectorTemplateCommonIPKN5clang8comments11CommandInfoEvEC2Em(ptr noundef nonnull align 8 dereferenceable(16) %5, i64 noundef %6)
  ret void
}

; Function Attrs: mustprogress nounwind uwtable
define linkonce_odr hidden void @_ZN4llvm15SmallVectorImplIPKN5clang8comments11CommandInfoEED2Ev(ptr noundef nonnull align 8 dereferenceable(16) %0) unnamed_addr #0 comdat align 2 {
  %2 = alloca ptr, align 8
  store ptr %0, ptr %2, align 8
  %3 = load ptr, ptr %2, align 8
  %4 = call noundef zeroext i1 @_ZNK4llvm25SmallVectorTemplateCommonIPKN5clang8comments11CommandInfoEvE7isSmallEv(ptr noundef nonnull align 8 dereferenceable(16) %3)
  br i1 %4, label %7, label %5

5:                                                ; preds = %1
  %6 = call noundef ptr @_ZN4llvm25SmallVectorTemplateCommonIPKN5clang8comments11CommandInfoEvE5beginEv(ptr noundef nonnull align 8 dereferenceable(16) %3)
  call void @free(ptr noundef %6) #8
  br label %7

7:                                                ; preds = %5, %1
  ret void
}

; Function Attrs: mustprogress nounwind uwtable
define linkonce_odr hidden void @_ZN4llvm23SmallVectorTemplateBaseIPKN5clang8comments11CommandInfoELb1EE13destroy_rangeEPS5_S7_(ptr noundef %0, ptr noundef %1) #0 comdat align 2 {
  %3 = alloca ptr, align 8
  %4 = alloca ptr, align 8
  store ptr %0, ptr %3, align 8
  store ptr %1, ptr %4, align 8
  ret void
}

; Function Attrs: mustprogress nounwind uwtable
define linkonce_odr hidden noundef ptr @_ZN4llvm25SmallVectorTemplateCommonIPKN5clang8comments11CommandInfoEvE3endEv(ptr noundef nonnull align 8 dereferenceable(16) %0) #0 comdat align 2 {
  %2 = alloca ptr, align 8
  store ptr %0, ptr %2, align 8
  %3 = load ptr, ptr %2, align 8
  %4 = call noundef ptr @_ZN4llvm25SmallVectorTemplateCommonIPKN5clang8comments11CommandInfoEvE5beginEv(ptr noundef nonnull align 8 dereferenceable(16) %3)
  %5 = call noundef i64 @_ZNK4llvm15SmallVectorBaseIjE4sizeEv(ptr noundef nonnull align 8 dereferenceable(16) %3)
  %6 = getelementptr inbounds ptr, ptr %4, i64 %5
  ret ptr %6
}

; Function Attrs: mustprogress nounwind uwtable
define linkonce_odr hidden noundef ptr @_ZN4llvm25SmallVectorTemplateCommonIPKN5clang8comments11CommandInfoEvE5beginEv(ptr noundef nonnull align 8 dereferenceable(16) %0) #0 comdat align 2 {
  %2 = alloca ptr, align 8
  store ptr %0, ptr %2, align 8
  %3 = load ptr, ptr %2, align 8
  %4 = getelementptr inbounds nuw %"class.llvm::SmallVectorBase", ptr %3, i32 0, i32 0
  %5 = load ptr, ptr %4, align 8
  ret ptr %5
}

; Function Attrs: mustprogress nounwind uwtable
define linkonce_odr hidden void @_ZN4llvm15SmallVectorImplIPKN5clang8comments11CommandInfoEEC2Ej(ptr noundef nonnull align 8 dereferenceable(16) %0, i32 noundef %1) unnamed_addr #0 comdat align 2 {
  %3 = alloca ptr, align 8
  %4 = alloca i32, align 4
  store ptr %0, ptr %3, align 8
  store i32 %1, ptr %4, align 4
  %5 = load ptr, ptr %3, align 8
  %6 = load i32, ptr %4, align 4
  %7 = zext i32 %6 to i64
  call void @_ZN4llvm23SmallVectorTemplateBaseIPKN5clang8comments11CommandInfoELb1EEC2Em(ptr noundef nonnull align 8 dereferenceable(16) %5, i64 noundef %7)
  ret void
}

; Function Attrs: mustprogress nounwind uwtable
define linkonce_odr hidden void @_ZN4llvm11SmallVectorIPKN5clang8comments11CommandInfoELj2EED2Ev(ptr noundef nonnull align 8 dereferenceable(32) %0) unnamed_addr #0 comdat align 2 {
  %2 = alloca ptr, align 8
  store ptr %0, ptr %2, align 8
  %3 = load ptr, ptr %2, align 8
  %4 = call noundef ptr @_ZN4llvm25SmallVectorTemplateCommonIPKN5clang8comments11CommandInfoEvE5beginEv(ptr noundef nonnull align 8 dereferenceable(16) %3)
  %5 = call noundef ptr @_ZN4llvm25SmallVectorTemplateCommonIPKN5clang8comments11CommandInfoEvE3endEv(ptr noundef nonnull align 8 dereferenceable(16) %3)
  call void @_ZN4llvm23SmallVectorTemplateBaseIPKN5clang8comments11CommandInfoELb1EE13destroy_rangeEPS5_S7_(ptr noundef %4, ptr noundef %5)
  call void @_ZN4llvm15SmallVectorImplIPKN5clang8comments11CommandInfoEED2Ev(ptr noundef nonnull align 8 dereferenceable(16) %3) #8
  ret void
}

; Function Attrs: mustprogress nounwind uwtable
define linkonce_odr hidden noundef nonnull align 8 dereferenceable(8) ptr @_ZN4llvm25SmallVectorTemplateCommonIPKN5clang8comments11CommandInfoEvEixEm(ptr noundef nonnull align 8 dereferenceable(16) %0, i64 noundef %1) #0 comdat align 2 {
  %3 = alloca ptr, align 8
  %4 = alloca i64, align 8
  store ptr %0, ptr %3, align 8
  store i64 %1, ptr %4, align 8
  %5 = load ptr, ptr %3, align 8
  %6 = call noundef ptr @_ZN4llvm25SmallVectorTemplateCommonIPKN5clang8comments11CommandInfoEvE5beginEv(ptr noundef nonnull align 8 dereferenceable(16) %5)
  %7 = load i64, ptr %4, align 8
  %8 = getelementptr inbounds ptr, ptr %6, i64 %7
  ret ptr %8
}

; Function Attrs: mustprogress nounwind uwtable
define linkonce_odr hidden noundef ptr @_ZNK4llvm25SmallVectorTemplateCommonIPN5clang8comments11CommandInfoEvE3endEv(ptr noundef nonnull align 8 dereferenceable(16) %0) #0 comdat align 2 {
  %2 = alloca ptr, align 8
  store ptr %0, ptr %2, align 8
  %3 = load ptr, ptr %2, align 8
  %4 = call noundef ptr @_ZNK4llvm25SmallVectorTemplateCommonIPN5clang8comments11CommandInfoEvE5beginEv(ptr noundef nonnull align 8 dereferenceable(16) %3)
  %5 = call noundef i64 @_ZNK4llvm15SmallVectorBaseIjE4sizeEv(ptr noundef nonnull align 8 dereferenceable(16) %3)
  %6 = getelementptr inbounds ptr, ptr %4, i64 %5
  ret ptr %6
}

; Function Attrs: mustprogress nounwind uwtable
define linkonce_odr hidden noundef ptr @_ZNK4llvm25SmallVectorTemplateCommonIPN5clang8comments11CommandInfoEvE5beginEv(ptr noundef nonnull align 8 dereferenceable(16) %0) #0 comdat align 2 {
  %2 = alloca ptr, align 8
  store ptr %0, ptr %2, align 8
  %3 = load ptr, ptr %2, align 8
  %4 = getelementptr inbounds nuw %"class.llvm::SmallVectorBase", ptr %3, i32 0, i32 0
  %5 = load ptr, ptr %4, align 8
  ret ptr %5
}

; Function Attrs: mustprogress nounwind uwtable
define linkonce_odr hidden void @_ZN4llvm11SmallVectorIPKN5clang8comments11CommandInfoELj2EEC2Ev(ptr noundef nonnull align 8 dereferenceable(32) %0) unnamed_addr #0 comdat align 2 {
  %2 = alloca ptr, align 8
  store ptr %0, ptr %2, align 8
  %3 = load ptr, ptr %2, align 8
  call void @_ZN4llvm15SmallVectorImplIPKN5clang8comments11CommandInfoEEC2Ej(ptr noundef nonnull align 8 dereferenceable(16) %3, i32 noundef 2)
  ret void
}

; Function Attrs: mustprogress nounwind uwtable
define linkonce_odr hidden noundef i64 @_ZNK4llvm9StringRef4sizeEv(ptr noundef nonnull align 8 dereferenceable(16) %0) #0 comdat align 2 {
  %2 = alloca ptr, align 8
  store ptr %0, ptr %2, align 8
  %3 = load ptr, ptr %2, align 8
  %4 = getelementptr inbounds nuw %"class.llvm::StringRef", ptr %3, i32 0, i32 1
  %5 = load i64, ptr %4, align 8
  ret i64 %5
}

; Function Attrs: mustprogress nounwind uwtable
define dso_local noundef ptr @_ZNK5clang8comments13CommandTraits25getTypoCorrectCommandInfoEN4llvm9StringRefE(ptr noundef nonnull align 8 dereferenceable(64) %0, ptr %1, i64 %2) #0 align 2 {
  %4 = alloca ptr, align 8
  %5 = alloca %"class.llvm::StringRef", align 8
  %6 = alloca ptr, align 8
  %7 = alloca i32, align 4
  %8 = alloca i32, align 4
  %9 = alloca %"class.llvm::SmallVector.14", align 8
  %10 = alloca %class.anon, align 8
  %11 = alloca ptr, align 8
  %12 = alloca ptr, align 8
  %13 = alloca ptr, align 8
  %14 = alloca ptr, align 8
  %15 = alloca ptr, align 8
  %16 = alloca ptr, align 8
  %17 = alloca ptr, align 8
  %18 = alloca ptr, align 8
  %19 = getelementptr inbounds nuw { ptr, i64 }, ptr %5, i32 0, i32 0
  store ptr %1, ptr %19, align 8
  %20 = getelementptr inbounds nuw { ptr, i64 }, ptr %5, i32 0, i32 1
  store i64 %2, ptr %20, align 8
  store ptr %0, ptr %6, align 8
  %21 = load ptr, ptr %6, align 8
  %22 = call noundef i64 @_ZNK4llvm9StringRef4sizeEv(ptr noundef nonnull align 8 dereferenceable(16) %5)
  %23 = icmp ule i64 %22, 1
  br i1 %23, label %24, label %25

24:                                               ; preds = %3
  store ptr null, ptr %4, align 8
  br label %74

25:                                               ; preds = %3
  store i32 1, ptr %7, align 4
  store i32 1, ptr %8, align 4
  call void @_ZN4llvm11SmallVectorIPKN5clang8comments11CommandInfoELj2EEC2Ev(ptr noundef nonnull align 8 dereferenceable(32) %9)
  %26 = getelementptr inbounds nuw %class.anon, ptr %10, i32 0, i32 0
  store ptr %5, ptr %26, align 8
  %27 = getelementptr inbounds nuw %class.anon, ptr %10, i32 0, i32 1
  store ptr %8, ptr %27, align 8
  %28 = getelementptr inbounds nuw %class.anon, ptr %10, i32 0, i32 2
  store ptr %9, ptr %28, align 8
  store ptr @_ZN5clang8comments12_GLOBAL__N_18CommandsE, ptr %11, align 8
  store ptr @_ZN5clang8comments12_GLOBAL__N_18CommandsE, ptr %12, align 8
  store ptr getelementptr inbounds (%"struct.clang::comments::CommandInfo", ptr @_ZN5clang8comments12_GLOBAL__N_18CommandsE, i64 199), ptr %13, align 8
  br label %29

29:                                               ; preds = %36, %25
  %30 = load ptr, ptr %12, align 8
  %31 = load ptr, ptr %13, align 8
  %32 = icmp ne ptr %30, %31
  br i1 %32, label %33, label %39

33:                                               ; preds = %29
  %34 = load ptr, ptr %12, align 8
  store ptr %34, ptr %14, align 8
  %35 = load ptr, ptr %14, align 8
  call void @"_ZZNK5clang8comments13CommandTraits25getTypoCorrectCommandInfoEN4llvm9StringRefEENK3$_0clEPKNS0_11CommandInfoE"(ptr noundef nonnull align 8 dereferenceable(24) %10, ptr noundef %35)
  br label %36

36:                                               ; preds = %33
  %37 = load ptr, ptr %12, align 8
  %38 = getelementptr inbounds %"struct.clang::comments::CommandInfo", ptr %37, i32 1
  store ptr %38, ptr %12, align 8
  br label %29

39:                                               ; preds = %29
  %40 = getelementptr inbounds nuw %"class.clang::comments::CommandTraits", ptr %21, i32 0, i32 2
  store ptr %40, ptr %15, align 8
  %41 = load ptr, ptr %15, align 8
  %42 = call noundef ptr @_ZNK4llvm25SmallVectorTemplateCommonIPN5clang8comments11CommandInfoEvE5beginEv(ptr noundef nonnull align 8 dereferenceable(16) %41)
  store ptr %42, ptr %16, align 8
  %43 = load ptr, ptr %15, align 8
  %44 = call noundef ptr @_ZNK4llvm25SmallVectorTemplateCommonIPN5clang8comments11CommandInfoEvE3endEv(ptr noundef nonnull align 8 dereferenceable(16) %43)
  store ptr %44, ptr %17, align 8
  br label %45

45:                                               ; preds = %62, %39
  %46 = load ptr, ptr %16, align 8
  %47 = load ptr, ptr %17, align 8
  %48 = icmp ne ptr %46, %47
  br i1 %48, label %49, label %65

49:                                               ; preds = %45
  %50 = load ptr, ptr %16, align 8
  %51 = load ptr, ptr %50, align 8
  store ptr %51, ptr %18, align 8
  %52 = load ptr, ptr %18, align 8
  %53 = getelementptr inbounds nuw %"struct.clang::comments::CommandInfo", ptr %52, i32 0, i32 2
  %54 = load i64, ptr %53, align 8
  %55 = lshr i64 %54, 42
  %56 = and i64 %55, 1
  %57 = trunc i64 %56 to i32
  %58 = icmp ne i32 %57, 0
  br i1 %58, label %61, label %59

59:                                               ; preds = %49
  %60 = load ptr, ptr %18, align 8
  call void @"_ZZNK5clang8comments13CommandTraits25getTypoCorrectCommandInfoEN4llvm9StringRefEENK3$_0clEPKNS0_11CommandInfoE"(ptr noundef nonnull align 8 dereferenceable(24) %10, ptr noundef %60)
  br label %61

61:                                               ; preds = %59, %49
  br label %62

62:                                               ; preds = %61
  %63 = load ptr, ptr %16, align 8
  %64 = getelementptr inbounds ptr, ptr %63, i32 1
  store ptr %64, ptr %16, align 8
  br label %45

65:                                               ; preds = %45
  %66 = call noundef i64 @_ZNK4llvm15SmallVectorBaseIjE4sizeEv(ptr noundef nonnull align 8 dereferenceable(16) %9)
  %67 = icmp eq i64 %66, 1
  br i1 %67, label %68, label %71

68:                                               ; preds = %65
  %69 = call noundef nonnull align 8 dereferenceable(8) ptr @_ZN4llvm25SmallVectorTemplateCommonIPKN5clang8comments11CommandInfoEvEixEm(ptr noundef nonnull align 8 dereferenceable(16) %9, i64 noundef 0)
  %70 = load ptr, ptr %69, align 8
  br label %72

71:                                               ; preds = %65
  br label %72

72:                                               ; preds = %71, %68
  %73 = phi ptr [ %70, %68 ], [ null, %71 ]
  store ptr %73, ptr %4, align 8
  call void @_ZN4llvm11SmallVectorIPKN5clang8comments11CommandInfoELj2EED2Ev(ptr noundef nonnull align 8 dereferenceable(32) %9) #8
  br label %74

74:                                               ; preds = %72, %24
  %75 = load ptr, ptr %4, align 8
  ret ptr %75
}