; Function Attrs: mustprogress nounwind uwtable
define dso_local noundef ptr @_ZNK5clang8comments13CommandTraits25getTypoCorrectCommandInfoEN4llvm9StringRefE(ptr noundef nonnull align 8 dereferenceable(64) %0, ptr %1, i64 %2) local_unnamed_addr #1 align 2 {
  %4 = alloca %"class.llvm::StringRef", align 8
  %5 = alloca i32, align 4
  %6 = alloca %"class.llvm::SmallVector.14", align 8
  %7 = alloca %class.anon, align 8
  store ptr %1, ptr %4, align 8
  %8 = getelementptr inbounds nuw i8, ptr %4, i64 8
  store i64 %2, ptr %8, align 8
  %9 = icmp ult i64 %2, 2
  br i1 %9, label %_ZN4llvm11SmallVectorIPKN5clang8comments11CommandInfoELj2EED2Ev.exit, label %10

10:                                               ; preds = %3
  store i32 1, ptr %5, align 4
  %11 = getelementptr inbounds i8, ptr %6, i64 16
  call void @_ZN4llvm15SmallVectorBaseIjEC2EPvm(ptr noundef nonnull align 8 dereferenceable(16) %6, ptr noundef nonnull %11, i64 noundef 2) #13
  store ptr %4, ptr %7, align 8
  %12 = getelementptr inbounds nuw i8, ptr %7, i64 8
  store ptr %5, ptr %12, align 8
  %13 = getelementptr inbounds nuw i8, ptr %7, i64 16
  store ptr %6, ptr %13, align 8
  br label %14

14:                                               ; preds = %10, %14
  %.015.idx19 = phi i64 [ 0, %10 ], [ %.015.add, %14 ]
  %.015.ptr = getelementptr inbounds i8, ptr @_ZN5clang8comments12_GLOBAL__N_18CommandsE, i64 %.015.idx19
  call fastcc void @"_ZZNK5clang8comments13CommandTraits25getTypoCorrectCommandInfoEN4llvm9StringRefEENK3$_0clEPKNS0_11CommandInfoE"(ptr noundef nonnull align 8 dereferenceable(24) %7, ptr noundef nonnull %.015.ptr)
  %.015.add = add nuw nsw i64 %.015.idx19, 24
  %.not = icmp eq i64 %.015.add, 4776
  br i1 %.not, label %15, label %14

15:                                               ; preds = %14
  %16 = getelementptr inbounds nuw i8, ptr %0, i64 16
  %17 = load ptr, ptr %16, align 8
  %18 = call noundef i64 @_ZNK4llvm15SmallVectorBaseIjE4sizeEv(ptr noundef nonnull align 8 dereferenceable(16) %16) #13
  %19 = getelementptr inbounds ptr, ptr %17, i64 %18
  %.not1720 = icmp eq i64 %18, 0
  br i1 %.not1720, label %._crit_edge, label %.lr.ph

.lr.ph:                                           ; preds = %15, %25
  %.01621 = phi ptr [ %26, %25 ], [ %17, %15 ]
  %20 = load ptr, ptr %.01621, align 8
  %21 = getelementptr inbounds nuw i8, ptr %20, i64 16
  %22 = load i64, ptr %21, align 8
  %23 = and i64 %22, 4398046511104
  %.not18 = icmp eq i64 %23, 0
  br i1 %.not18, label %24, label %25

24:                                               ; preds = %.lr.ph
  call fastcc void @"_ZZNK5clang8comments13CommandTraits25getTypoCorrectCommandInfoEN4llvm9StringRefEENK3$_0clEPKNS0_11CommandInfoE"(ptr noundef nonnull align 8 dereferenceable(24) %7, ptr noundef nonnull %20)
  br label %25

25:                                               ; preds = %.lr.ph, %24
  %26 = getelementptr inbounds i8, ptr %.01621, i64 8
  %.not17 = icmp eq ptr %26, %19
  br i1 %.not17, label %._crit_edge, label %.lr.ph

._crit_edge:                                      ; preds = %25, %15
  %27 = call noundef i64 @_ZNK4llvm15SmallVectorBaseIjE4sizeEv(ptr noundef nonnull align 8 dereferenceable(16) %6) #13
  %28 = icmp eq i64 %27, 1
  br i1 %28, label %29, label %32

29:                                               ; preds = %._crit_edge
  %30 = load ptr, ptr %6, align 8
  %31 = load ptr, ptr %30, align 8
  br label %32

32:                                               ; preds = %._crit_edge, %29
  %33 = phi ptr [ %31, %29 ], [ null, %._crit_edge ]
  %34 = call noundef i64 @_ZNK4llvm15SmallVectorBaseIjE4sizeEv(ptr noundef nonnull align 8 dereferenceable(16) %6) #13
  %35 = load ptr, ptr %6, align 8
  %36 = icmp eq ptr %35, %11
  br i1 %36, label %_ZN4llvm11SmallVectorIPKN5clang8comments11CommandInfoELj2EED2Ev.exit, label %37

37:                                               ; preds = %32
  call void @free(ptr noundef %35) #13
  br label %_ZN4llvm11SmallVectorIPKN5clang8comments11CommandInfoELj2EED2Ev.exit

_ZN4llvm11SmallVectorIPKN5clang8comments11CommandInfoELj2EED2Ev.exit: ; preds = %37, %32, %3
  %.0 = phi ptr [ null, %3 ], [ %33, %32 ], [ %33, %37 ]
  ret ptr %.0
}